
../../../../em3086/soc_src/boot/sfcboot/tagets/boot.elf:     file format elf32-tradlittlemips

Disassembly of section .text:

f4001000 <_start>:
f4001000:	06 05 04 03 02 55 aa 55 aa 00 ff ff 00 00 00 00     .....U.U........
	...
f4001800:	07 80 02 40 00 00 00 00 02 00 42 34 07 80 82 40     ...@......B4...@
f4001810:	00 00 00 00 40 00 08 3c 04 fc 08 35 00 60 88 40     ....@..<...5.`.@
f4001820:	80 00 09 3c 00 68 89 40 00 b0 08 3c 24 00 09 8d     ...<.h.@...<$...
f4001830:	22 00 29 35 24 00 09 ad                             ".)5$...

f4001838 <init_caches>:
f4001838:	24080003 	li	t0,3
f400183c:	40888000 	mtc0	t0,c0_config
f4001840:	00000000 	nop
f4001844:	3c082000 	lui	t0,0x2000
f4001848:	4088d000 	mtc0	t0,c0_errctl
f400184c:	3c098000 	lui	t1,0x8000
f4001850:	352a3fe0 	ori	t2,t1,0x3fe0
f4001854:	4080e000 	mtc0	zero,c0_taglo
f4001858:	4080e001 	mtc0	zero,c0_datalo

f400185c <cache_clear_a_line>:
f400185c:	bd280000 	cache	0x8,0(t1)
f4001860:	bd290000 	cache	0x9,0(t1)
f4001864:	25290020 	addiu	t1,t1,32
f4001868:	152afffc 	bne	t1,t2,f400185c <cache_clear_a_line>
f400186c:	00000000 	nop
f4001870:	3c098000 	lui	t1,0x8000
f4001874:	352a3fe0 	ori	t2,t1,0x3fe0
f4001878:	09000861 	j	f4002184 <spl_main>
f400187c:	00000000 	nop

f4001880 <apll_init>:
f4001880:	3c03b000 	lui	v1,0xb000
f4001884:	3c02a900 	lui	v0,0xa900
f4001888:	34630010 	ori	v1,v1,0x10
f400188c:	34420120 	ori	v0,v0,0x120
f4001890:	ac620000 	sw	v0,0(v1)
f4001894:	3c06b000 	lui	a2,0xb000
f4001898:	8c620000 	lw	v0,0(v1)
f400189c:	30420400 	andi	v0,v0,0x400
f40018a0:	1040fffd 	beqz	v0,f4001898 <apll_init+0x18>
f40018a4:	00000000 	nop
f40018a8:	8cc40000 	lw	a0,0(a2)
f40018ac:	3c03ff00 	lui	v1,0xff00
f40018b0:	3c020077 	lui	v0,0x77
f40018b4:	00832024 	and	a0,a0,v1
f40018b8:	34423210 	ori	v0,v0,0x3210
f40018bc:	00822025 	or	a0,a0,v0
f40018c0:	3c05b000 	lui	a1,0xb000
f40018c4:	acc40000 	sw	a0,0(a2)
f40018c8:	34a300d4 	ori	v1,a1,0xd4
f40018cc:	8c620000 	lw	v0,0(v1)
f40018d0:	30420007 	andi	v0,v0,0x7
f40018d4:	1440fffd 	bnez	v0,f40018cc <apll_init+0x4c>
f40018d8:	00000000 	nop
f40018dc:	8ca30000 	lw	v1,0(a1)
f40018e0:	3c0200ff 	lui	v0,0xff
f40018e4:	3442ffff 	ori	v0,v0,0xffff
f40018e8:	00621824 	and	v1,v1,v0
f40018ec:	3c049a00 	lui	a0,0x9a00
f40018f0:	00641825 	or	v1,v1,a0
f40018f4:	aca30000 	sw	v1,0(a1)
f40018f8:	8ca20000 	lw	v0,0(a1)
f40018fc:	03e00008 	jr	ra
f4001900:	00000000 	nop

f4001904 <mpll_init>:
f4001904:	3c03b000 	lui	v1,0xb000
f4001908:	3c02a900 	lui	v0,0xa900
f400190c:	34630014 	ori	v1,v1,0x14
f4001910:	34420080 	ori	v0,v0,0x80
f4001914:	ac620000 	sw	v0,0(v1)
f4001918:	8c620000 	lw	v0,0(v1)
f400191c:	30420001 	andi	v0,v0,0x1
f4001920:	1040fffd 	beqz	v0,f4001918 <mpll_init+0x14>
f4001924:	3c02a000 	lui	v0,0xa000
f4001928:	3c03b000 	lui	v1,0xb000
f400192c:	3463002c 	ori	v1,v1,0x2c
f4001930:	34420004 	ori	v0,v0,0x4
f4001934:	ac620000 	sw	v0,0(v1)
f4001938:	3c041000 	lui	a0,0x1000
f400193c:	8c620000 	lw	v0,0(v1)
f4001940:	00441024 	and	v0,v0,a0
f4001944:	1440fffd 	bnez	v0,f400193c <mpll_init+0x38>
f4001948:	00000000 	nop
f400194c:	03e00008 	jr	ra
f4001950:	00000000 	nop

f4001954 <pll_init>:
f4001954:	27bdffe8 	addiu	sp,sp,-24
f4001958:	afbf0010 	sw	ra,16(sp)
f400195c:	0d000641 	jal	f4001904 <mpll_init>
f4001960:	00000000 	nop
f4001964:	8fbf0010 	lw	ra,16(sp)
f4001968:	09000620 	j	f4001880 <apll_init>
f400196c:	27bd0018 	addiu	sp,sp,24

f4001970 <udelay>:
f4001970:	00041240 	sll	v0,a0,0x9
f4001974:	000420c0 	sll	a0,a0,0x3
f4001978:	00441023 	subu	v0,v0,a0
f400197c:	1440ffff 	bnez	v0,f400197c <udelay+0xc>
f4001980:	2042ffff 	addi	v0,v0,-1
f4001984:	03e00008 	jr	ra
f4001988:	00000000 	nop

f400198c <mdelay>:
f400198c:	00041880 	sll	v1,a0,0x2
f4001990:	000411c0 	sll	v0,a0,0x7
f4001994:	00431023 	subu	v0,v0,v1
f4001998:	00441021 	addu	v0,v0,a0
f400199c:	0900065c 	j	f4001970 <udelay>
f40019a0:	000220c0 	sll	a0,v0,0x3

f40019a4 <sfc_send_cmd>:
f40019a4:	93a20018 	lbu	v0,24(sp)
f40019a8:	00805821 	move	t3,a0
f40019ac:	1440005b 	bnez	v0,f4001b1c <sfc_send_cmd+0x178>
f40019b0:	8faa0014 	lw	t2,20(sp)
f40019b4:	3c02b344 	lui	v0,0xb344
f40019b8:	8c430000 	lw	v1,0(v0)
f40019bc:	2404dfff 	li	a0,-8193
f40019c0:	00641824 	and	v1,v1,a0
f40019c4:	ac430000 	sw	v1,0(v0)
f40019c8:	3c04b344 	lui	a0,0xb344
f40019cc:	3482002c 	ori	v0,a0,0x2c
f40019d0:	ac450000 	sw	a1,0(v0)
f40019d4:	34850014 	ori	a1,a0,0x14
f40019d8:	8ca30000 	lw	v1,0(a1)
f40019dc:	3c02e3ff 	lui	v0,0xe3ff
f40019e0:	3442ffff 	ori	v0,v0,0xffff
f40019e4:	00621824 	and	v1,v1,v0
f40019e8:	00072680 	sll	a0,a3,0x1a
f40019ec:	00641825 	or	v1,v1,a0
f40019f0:	aca30000 	sw	v1,0(a1)
f40019f4:	8ca20000 	lw	v0,0(a1)
f40019f8:	3c030100 	lui	v1,0x100
f40019fc:	00431025 	or	v0,v0,v1
f4001a00:	24030001 	li	v1,1
f4001a04:	aca20000 	sw	v0,0(a1)
f4001a08:	1143004a 	beq	t2,v1,f4001b34 <sfc_send_cmd+0x190>
f4001a0c:	00000000 	nop
f4001a10:	8ca30000 	lw	v1,0(a1)
f4001a14:	3c02fffe 	lui	v0,0xfffe
f4001a18:	3442ffff 	ori	v0,v0,0xffff
f4001a1c:	00621824 	and	v1,v1,v0
f4001a20:	aca30000 	sw	v1,0(a1)
f4001a24:	3c09b344 	lui	t1,0xb344
f4001a28:	35280014 	ori	t0,t1,0x14
f4001a2c:	8d030000 	lw	v1,0(t0)
f4001a30:	91640000 	lbu	a0,0(t3)
f4001a34:	3c02ffff 	lui	v0,0xffff
f4001a38:	00621824 	and	v1,v1,v0
f4001a3c:	00641825 	or	v1,v1,a0
f4001a40:	35220030 	ori	v0,t1,0x30
f4001a44:	35250048 	ori	a1,t1,0x48
f4001a48:	ad030000 	sw	v1,0(t0)
f4001a4c:	ac460000 	sw	a2,0(v0)
f4001a50:	aca00000 	sw	zero,0(a1)
f4001a54:	8d040000 	lw	a0,0(t0)
f4001a58:	3c02ff81 	lui	v0,0xff81
f4001a5c:	8fa30010 	lw	v1,16(sp)
f4001a60:	3442ffff 	ori	v0,v0,0xffff
f4001a64:	00822024 	and	a0,a0,v0
f4001a68:	00031c40 	sll	v1,v1,0x11
f4001a6c:	00832025 	or	a0,a0,v1
f4001a70:	ad040000 	sw	a0,0(t0)
f4001a74:	8d030000 	lw	v1,0(t0)
f4001a78:	3c021fff 	lui	v0,0x1fff
f4001a7c:	3442ffff 	ori	v0,v0,0xffff
f4001a80:	24040001 	li	a0,1
f4001a84:	11440015 	beq	t2,a0,f4001adc <sfc_send_cmd+0x138>
f4001a88:	00622824 	and	a1,v1,v0
f4001a8c:	35230064 	ori	v1,t1,0x64
f4001a90:	24020004 	li	v0,4
f4001a94:	ad050000 	sw	a1,0(t0)
f4001a98:	ac620000 	sw	v0,0(v1)
f4001a9c:	ac640000 	sw	a0,0(v1)
f4001aa0:	1540000c 	bnez	t2,f4001ad4 <sfc_send_cmd+0x130>
f4001aa4:	35230068 	ori	v1,t1,0x68
f4001aa8:	8c620000 	lw	v0,0(v1)
f4001aac:	30420010 	andi	v0,v0,0x10
f4001ab0:	1040fffd 	beqz	v0,f4001aa8 <sfc_send_cmd+0x104>
f4001ab4:	3c04b344 	lui	a0,0xb344
f4001ab8:	34830068 	ori	v1,a0,0x68
f4001abc:	8c620000 	lw	v0,0(v1)
f4001ac0:	30420010 	andi	v0,v0,0x10
f4001ac4:	10400003 	beqz	v0,f4001ad4 <sfc_send_cmd+0x130>
f4001ac8:	3483006c 	ori	v1,a0,0x6c
f4001acc:	24020010 	li	v0,16
f4001ad0:	ac620000 	sw	v0,0(v1)
f4001ad4:	03e00008 	jr	ra
f4001ad8:	00000000 	nop
f4001adc:	10e00006 	beqz	a3,f4001af8 <sfc_send_cmd+0x154>
f4001ae0:	3c02b344 	lui	v0,0xb344
f4001ae4:	3c03f400 	lui	v1,0xf400
f4001ae8:	8c622ac0 	lw	v0,10944(v1)
f4001aec:	00021740 	sll	v0,v0,0x1d
f4001af0:	00a22825 	or	a1,a1,v0
f4001af4:	3c02b344 	lui	v0,0xb344
f4001af8:	34440064 	ori	a0,v0,0x64
f4001afc:	34420014 	ori	v0,v0,0x14
f4001b00:	ac450000 	sw	a1,0(v0)
f4001b04:	24030004 	li	v1,4
f4001b08:	24020001 	li	v0,1
f4001b0c:	ac830000 	sw	v1,0(a0)
f4001b10:	ac820000 	sw	v0,0(a0)
f4001b14:	03e00008 	jr	ra
f4001b18:	00000000 	nop
f4001b1c:	3c03b344 	lui	v1,0xb344
f4001b20:	8c620000 	lw	v0,0(v1)
f4001b24:	34422000 	ori	v0,v0,0x2000
f4001b28:	ac620000 	sw	v0,0(v1)
f4001b2c:	09000673 	j	f40019cc <sfc_send_cmd+0x28>
f4001b30:	3c04b344 	lui	a0,0xb344
f4001b34:	8ca20000 	lw	v0,0(a1)
f4001b38:	3c030001 	lui	v1,0x1
f4001b3c:	00431025 	or	v0,v0,v1
f4001b40:	aca20000 	sw	v0,0(a1)
f4001b44:	0900068a 	j	f4001a28 <sfc_send_cmd+0x84>
f4001b48:	3c09b344 	lui	t1,0xb344

f4001b4c <sfc_read_data>:
f4001b4c:	3c02b344 	lui	v0,0xb344
f4001b50:	24a50003 	addiu	a1,a1,3
f4001b54:	00052882 	srl	a1,a1,0x2
f4001b58:	344e1000 	ori	t6,v0,0x1000
f4001b5c:	00004821 	move	t1,zero
f4001b60:	344a0068 	ori	t2,v0,0x68
f4001b64:	344d006c 	ori	t5,v0,0x6c
f4001b68:	240c0004 	li	t4,4
f4001b6c:	240b001f 	li	t3,31
f4001b70:	8d420000 	lw	v0,0(t2)
f4001b74:	30420004 	andi	v0,v0,0x4
f4001b78:	10400011 	beqz	v0,f4001bc0 <sfc_read_data+0x74>
f4001b7c:	00a93823 	subu	a3,a1,t1
f4001b80:	2ce20020 	sltiu	v0,a3,32
f4001b84:	0162380a 	movz	a3,t3,v0
f4001b88:	adac0000 	sw	t4,0(t5)
f4001b8c:	10e0000c 	beqz	a3,f4001bc0 <sfc_read_data+0x74>
f4001b90:	00000000 	nop
f4001b94:	00801821 	move	v1,a0
f4001b98:	00003021 	move	a2,zero
f4001b9c:	01c04021 	move	t0,t6
f4001ba0:	8d020000 	lw	v0,0(t0)
f4001ba4:	24c60001 	addiu	a2,a2,1
f4001ba8:	ac620000 	sw	v0,0(v1)
f4001bac:	14c7fffc 	bne	a2,a3,f4001ba0 <sfc_read_data+0x54>
f4001bb0:	24630004 	addiu	v1,v1,4
f4001bb4:	00071080 	sll	v0,a3,0x2
f4001bb8:	00822021 	addu	a0,a0,v0
f4001bbc:	01274821 	addu	t1,t1,a3
f4001bc0:	1525ffeb 	bne	t1,a1,f4001b70 <sfc_read_data+0x24>
f4001bc4:	3c03b344 	lui	v1,0xb344
f4001bc8:	34630068 	ori	v1,v1,0x68
f4001bcc:	8c620000 	lw	v0,0(v1)
f4001bd0:	30420010 	andi	v0,v0,0x10
f4001bd4:	1040fffd 	beqz	v0,f4001bcc <sfc_read_data+0x80>
f4001bd8:	00000000 	nop
f4001bdc:	3c04b344 	lui	a0,0xb344
f4001be0:	34830068 	ori	v1,a0,0x68
f4001be4:	8c620000 	lw	v0,0(v1)
f4001be8:	30420010 	andi	v0,v0,0x10
f4001bec:	10400003 	beqz	v0,f4001bfc <sfc_read_data+0xb0>
f4001bf0:	3483006c 	ori	v1,a0,0x6c
f4001bf4:	24020010 	li	v0,16
f4001bf8:	ac620000 	sw	v0,0(v1)
f4001bfc:	03e00008 	jr	ra
f4001c00:	00001021 	move	v0,zero

f4001c04 <jz_sfc_read>:
f4001c04:	27bdffc8 	addiu	sp,sp,-56
f4001c08:	3c03f400 	lui	v1,0xf400
f4001c0c:	24020005 	li	v0,5
f4001c10:	2407006b 	li	a3,107
f4001c14:	afb1002c 	sw	s1,44(sp)
f4001c18:	afb00028 	sw	s0,40(sp)
f4001c1c:	afbf0030 	sw	ra,48(sp)
f4001c20:	00a08021 	move	s0,a1
f4001c24:	ac622ac0 	sw	v0,10944(v1)
f4001c28:	00c08821 	move	s1,a2
f4001c2c:	a3a70020 	sb	a3,32(sp)
f4001c30:	24030010 	li	v1,16
f4001c34:	27a50021 	addiu	a1,sp,33
f4001c38:	2406fff8 	li	a2,-8
f4001c3c:	00641006 	srlv	v0,a0,v1
f4001c40:	2463fff8 	addiu	v1,v1,-8
f4001c44:	a0a20000 	sb	v0,0(a1)
f4001c48:	1466fffc 	bne	v1,a2,f4001c3c <jz_sfc_read+0x38>
f4001c4c:	24a50001 	addiu	a1,a1,1
f4001c50:	3c02f400 	lui	v0,0xf400
f4001c54:	8c452ac8 	lw	a1,10952(v0)
f4001c58:	00803021 	move	a2,a0
f4001c5c:	00a42823 	subu	a1,a1,a0
f4001c60:	0205102b 	sltu	v0,s0,a1
f4001c64:	0202280b 	movn	a1,s0,v0
f4001c68:	27a40020 	addiu	a0,sp,32
f4001c6c:	24020008 	li	v0,8
f4001c70:	24030001 	li	v1,1
f4001c74:	24070003 	li	a3,3
f4001c78:	afa20010 	sw	v0,16(sp)
f4001c7c:	afa30014 	sw	v1,20(sp)
f4001c80:	0d000669 	jal	f40019a4 <sfc_send_cmd>
f4001c84:	afa00018 	sw	zero,24(sp)
f4001c88:	02202021 	move	a0,s1
f4001c8c:	0d0006d3 	jal	f4001b4c <sfc_read_data>
f4001c90:	02002821 	move	a1,s0
f4001c94:	8fbf0030 	lw	ra,48(sp)
f4001c98:	8fb1002c 	lw	s1,44(sp)
f4001c9c:	8fb00028 	lw	s0,40(sp)
f4001ca0:	00001021 	move	v0,zero
f4001ca4:	03e00008 	jr	ra
f4001ca8:	27bd0038 	addiu	sp,sp,56

f4001cac <sfc_nor_RDID>:
f4001cac:	27bdffd0 	addiu	sp,sp,-48
f4001cb0:	24030001 	li	v1,1
f4001cb4:	afb00028 	sw	s0,40(sp)
f4001cb8:	2402ff9f 	li	v0,-97
f4001cbc:	00808021 	move	s0,a0
f4001cc0:	24050003 	li	a1,3
f4001cc4:	27a40020 	addiu	a0,sp,32
f4001cc8:	00003021 	move	a2,zero
f4001ccc:	00003821 	move	a3,zero
f4001cd0:	afbf002c 	sw	ra,44(sp)
f4001cd4:	afa30014 	sw	v1,20(sp)
f4001cd8:	a3a20020 	sb	v0,32(sp)
f4001cdc:	afa00024 	sw	zero,36(sp)
f4001ce0:	afa00010 	sw	zero,16(sp)
f4001ce4:	0d000669 	jal	f40019a4 <sfc_send_cmd>
f4001ce8:	afa00018 	sw	zero,24(sp)
f4001cec:	27a40024 	addiu	a0,sp,36
f4001cf0:	0d0006d3 	jal	f4001b4c <sfc_read_data>
f4001cf4:	24050001 	li	a1,1
f4001cf8:	8fa30024 	lw	v1,36(sp)
f4001cfc:	3c0200ff 	lui	v0,0xff
f4001d00:	3442ffff 	ori	v0,v0,0xffff
f4001d04:	00621824 	and	v1,v1,v0
f4001d08:	ae030000 	sw	v1,0(s0)
f4001d0c:	8fbf002c 	lw	ra,44(sp)
f4001d10:	8fb00028 	lw	s0,40(sp)
f4001d14:	03e00008 	jr	ra
f4001d18:	27bd0030 	addiu	sp,sp,48

f4001d1c <sfc_init>:
f4001d1c:	3c04b000 	lui	a0,0xb000
f4001d20:	3c02a000 	lui	v0,0xa000
f4001d24:	34830074 	ori	v1,a0,0x74
f4001d28:	34420009 	ori	v0,v0,0x9
f4001d2c:	ac620000 	sw	v0,0(v1)
f4001d30:	34840020 	ori	a0,a0,0x20
f4001d34:	8c820000 	lw	v0,0(a0)
f4001d38:	2403fffb 	li	v1,-5
f4001d3c:	00431024 	and	v0,v0,v1
f4001d40:	ac820000 	sw	v0,0(a0)
f4001d44:	3c05b344 	lui	a1,0xb344
f4001d48:	8ca20000 	lw	v0,0(a1)
f4001d4c:	2403dfbf 	li	v1,-8257
f4001d50:	00431024 	and	v0,v0,v1
f4001d54:	34420004 	ori	v0,v0,0x4
f4001d58:	aca20000 	sw	v0,0(a1)
f4001d5c:	34a60004 	ori	a2,a1,0x4
f4001d60:	8cc40000 	lw	a0,0(a2)
f4001d64:	3c02fffc 	lui	v0,0xfffc
f4001d68:	34426007 	ori	v0,v0,0x6007
f4001d6c:	3c030001 	lui	v1,0x1
f4001d70:	00822024 	and	a0,a0,v0
f4001d74:	34630007 	ori	v1,v1,0x7
f4001d78:	00832025 	or	a0,a0,v1
f4001d7c:	3c07b344 	lui	a3,0xb344
f4001d80:	3c021f7f 	lui	v0,0x1f7f
f4001d84:	acc40000 	sw	a0,0(a2)
f4001d88:	34a50014 	ori	a1,a1,0x14
f4001d8c:	3444ffff 	ori	a0,v0,0xffff
f4001d90:	34e3002c 	ori	v1,a3,0x2c
f4001d94:	8ca20000 	lw	v0,0(a1)
f4001d98:	00441024 	and	v0,v0,a0
f4001d9c:	aca20000 	sw	v0,0(a1)
f4001da0:	24a50004 	addiu	a1,a1,4
f4001da4:	14a3fffb 	bne	a1,v1,f4001d94 <sfc_init+0x78>
f4001da8:	2402001f 	li	v0,31
f4001dac:	34e30070 	ori	v1,a3,0x70
f4001db0:	34e40078 	ori	a0,a3,0x78
f4001db4:	ac620000 	sw	v0,0(v1)
f4001db8:	ac800000 	sw	zero,0(a0)
f4001dbc:	8ce20000 	lw	v0,0(a3)
f4001dc0:	2403e07f 	li	v1,-8065
f4001dc4:	00431024 	and	v0,v0,v1
f4001dc8:	34420f80 	ori	v0,v0,0xf80
f4001dcc:	3c04f400 	lui	a0,0xf400
f4001dd0:	24842ac4 	addiu	a0,a0,10948
f4001dd4:	ace20000 	sw	v0,0(a3)
f4001dd8:	0900072b 	j	f4001cac <sfc_nor_RDID>
f4001ddc:	00000000 	nop

f4001de0 <sfc_gpio_init>:
f4001de0:	3c02b001 	lui	v0,0xb001
f4001de4:	3c03fc00 	lui	v1,0xfc00
f4001de8:	34460044 	ori	a2,v0,0x44
f4001dec:	34440018 	ori	a0,v0,0x18
f4001df0:	34450028 	ori	a1,v0,0x28
f4001df4:	34420038 	ori	v0,v0,0x38
f4001df8:	ac830000 	sw	v1,0(a0)
f4001dfc:	aca30000 	sw	v1,0(a1)
f4001e00:	ac430000 	sw	v1,0(v0)
f4001e04:	acc30000 	sw	v1,0(a2)
f4001e08:	03e00008 	jr	ra
f4001e0c:	00000000 	nop

f4001e10 <sfc_set_quad_mode>:
f4001e10:	27bdffb0 	addiu	sp,sp,-80
f4001e14:	3c02f400 	lui	v0,0xf400
f4001e18:	afbf004c 	sw	ra,76(sp)
f4001e1c:	afb40048 	sw	s4,72(sp)
f4001e20:	afb30044 	sw	s3,68(sp)
f4001e24:	afb20040 	sw	s2,64(sp)
f4001e28:	afb1003c 	sw	s1,60(sp)
f4001e2c:	afb00038 	sw	s0,56(sp)
f4001e30:	8c432ac4 	lw	v1,10948(v0)
f4001e34:	3c040017 	lui	a0,0x17
f4001e38:	24050002 	li	a1,2
f4001e3c:	348240c8 	ori	v0,a0,0x40c8
f4001e40:	afa00020 	sw	zero,32(sp)
f4001e44:	afa00024 	sw	zero,36(sp)
f4001e48:	1062000e 	beq	v1,v0,f4001e84 <sfc_set_quad_mode+0x74>
f4001e4c:	afa50028 	sw	a1,40(sp)
f4001e50:	3482609d 	ori	v0,a0,0x609d
f4001e54:	106200a3 	beq	v1,v0,f40020e4 <sfc_set_quad_mode+0x2d4>
f4001e58:	3c04f400 	lui	a0,0xf400
f4001e5c:	0d00097c 	jal	f40025f0 <serial_puts>
f4001e60:	24842a5c 	addiu	a0,a0,10844
f4001e64:	8fbf004c 	lw	ra,76(sp)
f4001e68:	8fb40048 	lw	s4,72(sp)
f4001e6c:	8fb30044 	lw	s3,68(sp)
f4001e70:	8fb20040 	lw	s2,64(sp)
f4001e74:	8fb1003c 	lw	s1,60(sp)
f4001e78:	8fb00038 	lw	s0,56(sp)
f4001e7c:	03e00008 	jr	ra
f4001e80:	27bd0050 	addiu	sp,sp,80
f4001e84:	3c030100 	lui	v1,0x100
f4001e88:	3c02f400 	lui	v0,0xf400
f4001e8c:	ac432ac8 	sw	v1,10952(v0)
f4001e90:	24020006 	li	v0,6
f4001e94:	24030031 	li	v1,49
f4001e98:	a3a2002c 	sb	v0,44(sp)
f4001e9c:	a3a3002d 	sb	v1,45(sp)
f4001ea0:	24020035 	li	v0,53
f4001ea4:	24030005 	li	v1,5
f4001ea8:	24140002 	li	s4,2
f4001eac:	afa50028 	sw	a1,40(sp)
f4001eb0:	a3a2002e 	sb	v0,46(sp)
f4001eb4:	a3a3002f 	sb	v1,47(sp)
f4001eb8:	24100001 	li	s0,1
f4001ebc:	27a4002c 	addiu	a0,sp,44
f4001ec0:	00002821 	move	a1,zero
f4001ec4:	00003021 	move	a2,zero
f4001ec8:	00003821 	move	a3,zero
f4001ecc:	afa00010 	sw	zero,16(sp)
f4001ed0:	afa00014 	sw	zero,20(sp)
f4001ed4:	0d000669 	jal	f40019a4 <sfc_send_cmd>
f4001ed8:	afb00018 	sw	s0,24(sp)
f4001edc:	00003821 	move	a3,zero
f4001ee0:	27a4002d 	addiu	a0,sp,45
f4001ee4:	24050001 	li	a1,1
f4001ee8:	00003021 	move	a2,zero
f4001eec:	afb00018 	sw	s0,24(sp)
f4001ef0:	afa00010 	sw	zero,16(sp)
f4001ef4:	0d000669 	jal	f40019a4 <sfc_send_cmd>
f4001ef8:	afb00014 	sw	s0,20(sp)
f4001efc:	3c02b344 	lui	v0,0xb344
f4001f00:	344e1000 	ori	t6,v0,0x1000
f4001f04:	27a80028 	addiu	t0,sp,40
f4001f08:	00003821 	move	a3,zero
f4001f0c:	344a0068 	ori	t2,v0,0x68
f4001f10:	344d006c 	ori	t5,v0,0x6c
f4001f14:	240c0008 	li	t4,8
f4001f18:	24090001 	li	t1,1
f4001f1c:	240b001f 	li	t3,31
f4001f20:	8d420000 	lw	v0,0(t2)
f4001f24:	30420008 	andi	v0,v0,0x8
f4001f28:	10400011 	beqz	v0,f4001f70 <sfc_set_quad_mode+0x160>
f4001f2c:	01272823 	subu	a1,t1,a3
f4001f30:	2ca20020 	sltiu	v0,a1,32
f4001f34:	0162280a 	movz	a1,t3,v0
f4001f38:	adac0000 	sw	t4,0(t5)
f4001f3c:	10a0000c 	beqz	a1,f4001f70 <sfc_set_quad_mode+0x160>
f4001f40:	00000000 	nop
f4001f44:	01001821 	move	v1,t0
f4001f48:	00002021 	move	a0,zero
f4001f4c:	01c03021 	move	a2,t6
f4001f50:	8c620000 	lw	v0,0(v1)
f4001f54:	24840001 	addiu	a0,a0,1
f4001f58:	acc20000 	sw	v0,0(a2)
f4001f5c:	1485fffc 	bne	a0,a1,f4001f50 <sfc_set_quad_mode+0x140>
f4001f60:	24630004 	addiu	v1,v1,4
f4001f64:	00051080 	sll	v0,a1,0x2
f4001f68:	01024021 	addu	t0,t0,v0
f4001f6c:	00e53821 	addu	a3,a3,a1
f4001f70:	14e9ffeb 	bne	a3,t1,f4001f20 <sfc_set_quad_mode+0x110>
f4001f74:	3c03b344 	lui	v1,0xb344
f4001f78:	34630068 	ori	v1,v1,0x68
f4001f7c:	8c620000 	lw	v0,0(v1)
f4001f80:	30420010 	andi	v0,v0,0x10
f4001f84:	1040fffd 	beqz	v0,f4001f7c <sfc_set_quad_mode+0x16c>
f4001f88:	00000000 	nop
f4001f8c:	3c04b344 	lui	a0,0xb344
f4001f90:	34830068 	ori	v1,a0,0x68
f4001f94:	8c620000 	lw	v0,0(v1)
f4001f98:	30420010 	andi	v0,v0,0x10
f4001f9c:	10400005 	beqz	v0,f4001fb4 <sfc_set_quad_mode+0x1a4>
f4001fa0:	27b2002f 	addiu	s2,sp,47
f4001fa4:	3483006c 	ori	v1,a0,0x6c
f4001fa8:	24020010 	li	v0,16
f4001fac:	ac620000 	sw	v0,0(v1)
f4001fb0:	27b2002f 	addiu	s2,sp,47
f4001fb4:	24020001 	li	v0,1
f4001fb8:	02402021 	move	a0,s2
f4001fbc:	24050001 	li	a1,1
f4001fc0:	00003021 	move	a2,zero
f4001fc4:	00003821 	move	a3,zero
f4001fc8:	27b10024 	addiu	s1,sp,36
f4001fcc:	afa20014 	sw	v0,20(sp)
f4001fd0:	afa00010 	sw	zero,16(sp)
f4001fd4:	0d000669 	jal	f40019a4 <sfc_send_cmd>
f4001fd8:	afa00018 	sw	zero,24(sp)
f4001fdc:	02202021 	move	a0,s1
f4001fe0:	0d0006d3 	jal	f4001b4c <sfc_read_data>
f4001fe4:	24050001 	li	a1,1
f4001fe8:	8fa30024 	lw	v1,36(sp)
f4001fec:	30630001 	andi	v1,v1,0x1
f4001ff0:	10600010 	beqz	v1,f4002034 <sfc_set_quad_mode+0x224>
f4001ff4:	24100001 	li	s0,1
f4001ff8:	24050001 	li	a1,1
f4001ffc:	00003021 	move	a2,zero
f4002000:	00003821 	move	a3,zero
f4002004:	02402021 	move	a0,s2
f4002008:	afa00010 	sw	zero,16(sp)
f400200c:	afb00014 	sw	s0,20(sp)
f4002010:	0d000669 	jal	f40019a4 <sfc_send_cmd>
f4002014:	afa00018 	sw	zero,24(sp)
f4002018:	02202021 	move	a0,s1
f400201c:	0d0006d3 	jal	f4001b4c <sfc_read_data>
f4002020:	24050001 	li	a1,1
f4002024:	8fa30024 	lw	v1,36(sp)
f4002028:	30630001 	andi	v1,v1,0x1
f400202c:	1460fff2 	bnez	v1,f4001ff8 <sfc_set_quad_mode+0x1e8>
f4002030:	00000000 	nop
f4002034:	27b3002e 	addiu	s3,sp,46
f4002038:	24020001 	li	v0,1
f400203c:	02602021 	move	a0,s3
f4002040:	24050001 	li	a1,1
f4002044:	00003021 	move	a2,zero
f4002048:	00003821 	move	a3,zero
f400204c:	27b20020 	addiu	s2,sp,32
f4002050:	afa20014 	sw	v0,20(sp)
f4002054:	afa00010 	sw	zero,16(sp)
f4002058:	0d000669 	jal	f40019a4 <sfc_send_cmd>
f400205c:	afa00018 	sw	zero,24(sp)
f4002060:	02402021 	move	a0,s2
f4002064:	0d0006d3 	jal	f4001b4c <sfc_read_data>
f4002068:	24050001 	li	a1,1
f400206c:	8fa30020 	lw	v1,32(sp)
f4002070:	02831824 	and	v1,s4,v1
f4002074:	1460ff7b 	bnez	v1,f4001e64 <sfc_set_quad_mode+0x54>
f4002078:	24100009 	li	s0,9
f400207c:	24110001 	li	s1,1
f4002080:	00003021 	move	a2,zero
f4002084:	00003821 	move	a3,zero
f4002088:	02602021 	move	a0,s3
f400208c:	24050001 	li	a1,1
f4002090:	afa00010 	sw	zero,16(sp)
f4002094:	afb10014 	sw	s1,20(sp)
f4002098:	0d000669 	jal	f40019a4 <sfc_send_cmd>
f400209c:	afa00018 	sw	zero,24(sp)
f40020a0:	02402021 	move	a0,s2
f40020a4:	0d0006d3 	jal	f4001b4c <sfc_read_data>
f40020a8:	24050001 	li	a1,1
f40020ac:	8fa30020 	lw	v1,32(sp)
f40020b0:	02831824 	and	v1,s4,v1
f40020b4:	1460ff6c 	bnez	v1,f4001e68 <sfc_set_quad_mode+0x58>
f40020b8:	8fbf004c 	lw	ra,76(sp)
f40020bc:	1600fff0 	bnez	s0,f4002080 <sfc_set_quad_mode+0x270>
f40020c0:	2610ffff 	addiu	s0,s0,-1
f40020c4:	8fbf004c 	lw	ra,76(sp)
f40020c8:	8fb40048 	lw	s4,72(sp)
f40020cc:	8fb30044 	lw	s3,68(sp)
f40020d0:	8fb20040 	lw	s2,64(sp)
f40020d4:	8fb1003c 	lw	s1,60(sp)
f40020d8:	8fb00038 	lw	s0,56(sp)
f40020dc:	03e00008 	jr	ra
f40020e0:	27bd0050 	addiu	sp,sp,80
f40020e4:	3c02f400 	lui	v0,0xf400
f40020e8:	24030040 	li	v1,64
f40020ec:	3c040080 	lui	a0,0x80
f40020f0:	24050005 	li	a1,5
f40020f4:	ac442ac8 	sw	a0,10952(v0)
f40020f8:	afa30028 	sw	v1,40(sp)
f40020fc:	24020006 	li	v0,6
f4002100:	24030001 	li	v1,1
f4002104:	24140040 	li	s4,64
f4002108:	a3a2002c 	sb	v0,44(sp)
f400210c:	a3a3002d 	sb	v1,45(sp)
f4002110:	a3a5002f 	sb	a1,47(sp)
f4002114:	090007ae 	j	f4001eb8 <sfc_set_quad_mode+0xa8>
f4002118:	a3a5002e 	sb	a1,46(sp)

f400211c <sfc_nor_read>:
f400211c:	27bdffe0 	addiu	sp,sp,-32
f4002120:	afbf001c 	sw	ra,28(sp)
f4002124:	afb20018 	sw	s2,24(sp)
f4002128:	afb10014 	sw	s1,20(sp)
f400212c:	00c09021 	move	s2,a2
f4002130:	00a08821 	move	s1,a1
f4002134:	afb00010 	sw	s0,16(sp)
f4002138:	0d000778 	jal	f4001de0 <sfc_gpio_init>
f400213c:	00808021 	move	s0,a0
f4002140:	0d000747 	jal	f4001d1c <sfc_init>
f4002144:	00000000 	nop
f4002148:	0d000784 	jal	f4001e10 <sfc_set_quad_mode>
f400214c:	00000000 	nop
f4002150:	3c02b344 	lui	v0,0xb344
f4002154:	24030004 	li	v1,4
f4002158:	34420064 	ori	v0,v0,0x64
f400215c:	ac430000 	sw	v1,0(v0)
f4002160:	02002021 	move	a0,s0
f4002164:	02202821 	move	a1,s1
f4002168:	02403021 	move	a2,s2
f400216c:	8fbf001c 	lw	ra,28(sp)
f4002170:	8fb20018 	lw	s2,24(sp)
f4002174:	8fb10014 	lw	s1,20(sp)
f4002178:	8fb00010 	lw	s0,16(sp)
f400217c:	09000701 	j	f4001c04 <jz_sfc_read>
f4002180:	27bd0020 	addiu	sp,sp,32

f4002184 <spl_main>:
f4002184:	3c03b001 	lui	v1,0xb001
f4002188:	34670724 	ori	a3,v1,0x724
f400218c:	34680738 	ori	t0,v1,0x738
f4002190:	34690748 	ori	t1,v1,0x748
f4002194:	346a07f0 	ori	t2,v1,0x7f0
f4002198:	27bdffe8 	addiu	sp,sp,-24
f400219c:	34660718 	ori	a2,v1,0x718
f40021a0:	346b0044 	ori	t3,v1,0x44
f40021a4:	24020020 	li	v0,32
f40021a8:	afbf0010 	sw	ra,16(sp)
f40021ac:	3c040100 	lui	a0,0x100
f40021b0:	acc20000 	sw	v0,0(a2)
f40021b4:	ace20000 	sw	v0,0(a3)
f40021b8:	ad020000 	sw	v0,0(t0)
f40021bc:	ad220000 	sw	v0,0(t1)
f40021c0:	ad400000 	sw	zero,0(t2)
f40021c4:	ad620000 	sw	v0,0(t3)
f40021c8:	24020002 	li	v0,2
f40021cc:	acc40000 	sw	a0,0(a2)
f40021d0:	3c050040 	lui	a1,0x40
f40021d4:	ace40000 	sw	a0,0(a3)
f40021d8:	346c0144 	ori	t4,v1,0x144
f40021dc:	ad040000 	sw	a0,0(t0)
f40021e0:	34630244 	ori	v1,v1,0x244
f40021e4:	ad240000 	sw	a0,0(t1)
f40021e8:	ad420000 	sw	v0,0(t2)
f40021ec:	24020001 	li	v0,1
f40021f0:	ac640000 	sw	a0,0(v1)
f40021f4:	acc50000 	sw	a1,0(a2)
f40021f8:	ace50000 	sw	a1,0(a3)
f40021fc:	ad050000 	sw	a1,0(t0)
f4002200:	ad250000 	sw	a1,0(t1)
f4002204:	ad420000 	sw	v0,0(t2)
f4002208:	ad850000 	sw	a1,0(t4)
f400220c:	0d000938 	jal	f40024e0 <serial_init>
f4002210:	00000000 	nop
f4002214:	0d000655 	jal	f4001954 <pll_init>
f4002218:	00000000 	nop
f400221c:	0d000a0a 	jal	f4002828 <sdram_init>
f4002220:	00000000 	nop
f4002224:	24042000 	li	a0,8192
f4002228:	3c050004 	lui	a1,0x4
f400222c:	0d000847 	jal	f400211c <sfc_nor_read>
f4002230:	3c068080 	lui	a2,0x8080
f4002234:	0d0008ad 	jal	f40022b4 <flush_cache_all>
f4002238:	00000000 	nop
f400223c:	8fbf0010 	lw	ra,16(sp)
f4002240:	3c198080 	lui	t9,0x8080
f4002244:	03200008 	jr	t9
f4002248:	27bd0018 	addiu	sp,sp,24
f400224c:	00000000 	nop

f4002250 <flush_icache_all>:
f4002250:	4080e000 	mtc0	zero,c0_taglo
f4002254:	4080e800 	mtc0	zero,c0_taghi
f4002258:	3c028000 	lui	v0,0x8000
f400225c:	34434000 	ori	v1,v0,0x4000
f4002260:	bc480000 	cache	0x8,0(v0)
f4002264:	24420020 	addiu	v0,v0,32
f4002268:	1443fffd 	bne	v0,v1,f4002260 <flush_icache_all+0x10>
f400226c:	00000000 	nop
f4002270:	00001021 	move	v0,zero
f4002274:	40028007 	mfc0	v0,$16,7
f4002278:	00000000 	nop
f400227c:	34420002 	ori	v0,v0,0x2
f4002280:	40828007 	mtc0	v0,$16,7
f4002284:	03e00008 	jr	ra
f4002288:	00000000 	nop

f400228c <flush_dcache_all>:
f400228c:	3c028000 	lui	v0,0x8000
f4002290:	34434000 	ori	v1,v0,0x4000
f4002294:	bc410000 	cache	0x1,0(v0)
f4002298:	24420020 	addiu	v0,v0,32
f400229c:	1443fffd 	bne	v0,v1,f4002294 <flush_dcache_all+0x8>
f40022a0:	00000000 	nop
f40022a4:	0000000f 	sync
f40022a8:	3c02a000 	lui	v0,0xa000
f40022ac:	03e00008 	jr	ra
f40022b0:	8c400000 	lw	zero,0(v0)

f40022b4 <flush_cache_all>:
f40022b4:	27bdffe8 	addiu	sp,sp,-24
f40022b8:	afbf0010 	sw	ra,16(sp)
f40022bc:	0d0008a3 	jal	f400228c <flush_dcache_all>
f40022c0:	00000000 	nop
f40022c4:	8fbf0010 	lw	ra,16(sp)
f40022c8:	09000894 	j	f4002250 <flush_icache_all>
f40022cc:	27bd0018 	addiu	sp,sp,24

f40022d0 <ddr_cfg_init>:
f40022d0:	3c0312e6 	lui	v1,0x12e6
f40022d4:	3c02b34f 	lui	v0,0xb34f
f40022d8:	34639273 	ori	v1,v1,0x9273
f40022dc:	34420004 	ori	v0,v0,0x4
f40022e0:	ac430000 	sw	v1,0(v0)
f40022e4:	03e00008 	jr	ra
f40022e8:	00000000 	nop

f40022ec <ddr_phy_init>:
f40022ec:	3c04b301 	lui	a0,0xb301
f40022f0:	34821030 	ori	v0,a0,0x1030
f40022f4:	34851040 	ori	a1,a0,0x1040
f40022f8:	24030042 	li	v1,66
f40022fc:	ac400000 	sw	zero,0(v0)
f4002300:	aca30000 	sw	v1,0(a1)
f4002304:	3c020021 	lui	v0,0x21
f4002308:	3c0300a0 	lui	v1,0xa0
f400230c:	3487101c 	ori	a3,a0,0x101c
f4002310:	34861018 	ori	a2,a0,0x1018
f4002314:	3442000a 	ori	v0,v0,0xa
f4002318:	34639c40 	ori	v1,v1,0x9c40
f400231c:	acc20000 	sw	v0,0(a2)
f4002320:	ace30000 	sw	v1,0(a3)
f4002324:	3c020028 	lui	v0,0x28
f4002328:	3c031869 	lui	v1,0x1869
f400232c:	34881020 	ori	t0,a0,0x1020
f4002330:	34891034 	ori	t1,a0,0x1034
f4002334:	34420014 	ori	v0,v0,0x14
f4002338:	3463442e 	ori	v1,v1,0x442e
f400233c:	ad020000 	sw	v0,0(t0)
f4002340:	ad230000 	sw	v1,0(t1)
f4002344:	3c02000f 	lui	v0,0xf
f4002348:	3c031ff8 	lui	v1,0x1ff8
f400234c:	348a1038 	ori	t2,a0,0x1038
f4002350:	348b103c 	ori	t3,a0,0x103c
f4002354:	34420048 	ori	v0,v0,0x48
f4002358:	34630828 	ori	v1,v1,0x828
f400235c:	ad420000 	sw	v0,0(t2)
f4002360:	348411c0 	ori	a0,a0,0x11c0
f4002364:	ad630000 	sw	v1,0(t3)
f4002368:	8c830000 	lw	v1,0(a0)
f400236c:	2402f9ff 	li	v0,-1537
f4002370:	00622824 	and	a1,v1,v0
f4002374:	00003821 	move	a3,zero
f4002378:	3c02b301 	lui	v0,0xb301
f400237c:	00071980 	sll	v1,a3,0x6
f4002380:	34421200 	ori	v0,v0,0x1200
f4002384:	24e70001 	addiu	a3,a3,1
f4002388:	00624021 	addu	t0,v1,v0
f400238c:	28e20004 	slti	v0,a3,4
f4002390:	ac850000 	sw	a1,0(a0)
f4002394:	28e60002 	slti	a2,a3,2
f4002398:	1040000e 	beqz	v0,f40023d4 <ddr_phy_init+0xe8>
f400239c:	01002021 	move	a0,t0
f40023a0:	8c830000 	lw	v1,0(a0)
f40023a4:	2402f9ff 	li	v0,-1537
f40023a8:	24880040 	addiu	t0,a0,64
f40023ac:	14c0fff2 	bnez	a2,f4002378 <ddr_phy_init+0x8c>
f40023b0:	00622824 	and	a1,v1,v0
f40023b4:	2402fffe 	li	v0,-2
f40023b8:	24e70001 	addiu	a3,a3,1
f40023bc:	00a22824 	and	a1,a1,v0
f40023c0:	28e20004 	slti	v0,a3,4
f40023c4:	ac850000 	sw	a1,0(a0)
f40023c8:	28e60002 	slti	a2,a3,2
f40023cc:	1440fff4 	bnez	v0,f40023a0 <ddr_phy_init+0xb4>
f40023d0:	01002021 	move	a0,t0
f40023d4:	3c04b301 	lui	a0,0xb301
f40023d8:	3c020104 	lui	v0,0x104
f40023dc:	34851008 	ori	a1,a0,0x1008
f40023e0:	34422e03 	ori	v0,v0,0x2e03
f40023e4:	3c0330c0 	lui	v1,0x30c0
f40023e8:	aca20000 	sw	v0,0(a1)
f40023ec:	34861028 	ori	a2,a0,0x1028
f40023f0:	34630813 	ori	v1,v1,0x813
f40023f4:	34841024 	ori	a0,a0,0x1024
f40023f8:	3c07b301 	lui	a3,0xb301
f40023fc:	24024910 	li	v0,18704
f4002400:	ac830000 	sw	v1,0(a0)
f4002404:	24050007 	li	a1,7
f4002408:	acc20000 	sw	v0,0(a2)
f400240c:	34e3100c 	ori	v1,a3,0x100c
f4002410:	2404001f 	li	a0,31
f4002414:	8c620000 	lw	v0,0(v1)
f4002418:	10450004 	beq	v0,a1,f400242c <ddr_phy_init+0x140>
f400241c:	00000000 	nop
f4002420:	8c620000 	lw	v0,0(v1)
f4002424:	1444fffb 	bne	v0,a0,f4002414 <ddr_phy_init+0x128>
f4002428:	00000000 	nop
f400242c:	34e31014 	ori	v1,a3,0x1014
f4002430:	3c028000 	lui	v0,0x8000
f4002434:	ac620000 	sw	v0,0(v1)
f4002438:	34e4102c 	ori	a0,a3,0x102c
f400243c:	8c820000 	lw	v0,0(a0)
f4002440:	2403ffef 	li	v1,-17
f4002444:	00431024 	and	v0,v0,v1
f4002448:	ac820000 	sw	v0,0(a0)
f400244c:	34e51010 	ori	a1,a3,0x1010
f4002450:	8ca30000 	lw	v1,0(a1)
f4002454:	3c020080 	lui	v0,0x80
f4002458:	00621825 	or	v1,v1,v0
f400245c:	3c022002 	lui	v0,0x2002
f4002460:	34e41004 	ori	a0,a3,0x1004
f4002464:	3c06b301 	lui	a2,0xb301
f4002468:	34420041 	ori	v0,v0,0x41
f400246c:	aca30000 	sw	v1,0(a1)
f4002470:	ac820000 	sw	v0,0(a0)
f4002474:	34c5100c 	ori	a1,a2,0x100c
f4002478:	2404000f 	li	a0,15
f400247c:	2403001f 	li	v1,31
f4002480:	8ca20000 	lw	v0,0(a1)
f4002484:	10440004 	beq	v0,a0,f4002498 <ddr_phy_init+0x1ac>
f4002488:	3c022002 	lui	v0,0x2002
f400248c:	8ca20000 	lw	v0,0(a1)
f4002490:	1443fffb 	bne	v0,v1,f4002480 <ddr_phy_init+0x194>
f4002494:	3c022002 	lui	v0,0x2002
f4002498:	34420081 	ori	v0,v0,0x81
f400249c:	34c41004 	ori	a0,a2,0x1004
f40024a0:	ac820000 	sw	v0,0(a0)
f40024a4:	8ca30000 	lw	v1,0(a1)
f40024a8:	2402001f 	li	v0,31
f40024ac:	10620002 	beq	v1,v0,f40024b8 <ddr_phy_init+0x1cc>
f40024b0:	00000000 	nop
f40024b4:	8ca20000 	lw	v0,0(a1)
f40024b8:	8ca20000 	lw	v0,0(a1)
f40024bc:	30420060 	andi	v0,v0,0x60
f40024c0:	14400003 	bnez	v0,f40024d0 <ddr_phy_init+0x1e4>
f40024c4:	3c04f400 	lui	a0,0xf400
f40024c8:	03e00008 	jr	ra
f40024cc:	00000000 	nop
f40024d0:	0900097c 	j	f40025f0 <serial_puts>
f40024d4:	24842a74 	addiu	a0,a0,10868
	...

f40024e0 <serial_init>:
f40024e0:	3c02b001 	lui	v0,0xb001
f40024e4:	2403000c 	li	v1,12
f40024e8:	34440018 	ori	a0,v0,0x18
f40024ec:	ac830000 	sw	v1,0(a0)
f40024f0:	34460048 	ori	a2,v0,0x48
f40024f4:	34450028 	ori	a1,v0,0x28
f40024f8:	3c04b000 	lui	a0,0xb000
f40024fc:	34420034 	ori	v0,v0,0x34
f4002500:	aca30000 	sw	v1,0(a1)
f4002504:	34840020 	ori	a0,a0,0x20
f4002508:	ac430000 	sw	v1,0(v0)
f400250c:	acc30000 	sw	v1,0(a2)
f4002510:	8c830000 	lw	v1,0(a0)
f4002514:	3c02fffe 	lui	v0,0xfffe
f4002518:	3442ffff 	ori	v0,v0,0xffff
f400251c:	3c05b003 	lui	a1,0xb003
f4002520:	00621824 	and	v1,v1,v0
f4002524:	ac830000 	sw	v1,0(a0)
f4002528:	34a6200c 	ori	a2,a1,0x200c
f400252c:	34a82004 	ori	t0,a1,0x2004
f4002530:	34a92008 	ori	t1,a1,0x2008
f4002534:	34a72020 	ori	a3,a1,0x2020
f4002538:	2402ffef 	li	v0,-17
f400253c:	2403fffc 	li	v1,-4
f4002540:	24040003 	li	a0,3
f4002544:	a1000000 	sb	zero,0(t0)
f4002548:	a1220000 	sb	v0,0(t1)
f400254c:	a0e30000 	sb	v1,0(a3)
f4002550:	a0c40000 	sb	a0,0(a2)
f4002554:	90c20000 	lbu	v0,0(a2)
f4002558:	34a52000 	ori	a1,a1,0x2000
f400255c:	304200ff 	andi	v0,v0,0xff
f4002560:	34420080 	ori	v0,v0,0x80
f4002564:	2403000d 	li	v1,13
f4002568:	a0c20000 	sb	v0,0(a2)
f400256c:	a1000000 	sb	zero,0(t0)
f4002570:	a0a30000 	sb	v1,0(a1)
f4002574:	90c20000 	lbu	v0,0(a2)
f4002578:	24030017 	li	v1,23
f400257c:	3042007f 	andi	v0,v0,0x7f
f4002580:	a0c20000 	sb	v0,0(a2)
f4002584:	00001021 	move	v0,zero
f4002588:	a1230000 	sb	v1,0(t1)
f400258c:	03e00008 	jr	ra
f4002590:	00000000 	nop

f4002594 <serial_putc>:
f4002594:	27bdffe8 	addiu	sp,sp,-24
f4002598:	afb00010 	sw	s0,16(sp)
f400259c:	00048600 	sll	s0,a0,0x18
f40025a0:	00108603 	sra	s0,s0,0x18
f40025a4:	2402000a 	li	v0,10
f40025a8:	1202000d 	beq	s0,v0,f40025e0 <serial_putc+0x4c>
f40025ac:	afbf0014 	sw	ra,20(sp)
f40025b0:	3c05b003 	lui	a1,0xb003
f40025b4:	34a32014 	ori	v1,a1,0x2014
f40025b8:	90620000 	lbu	v0,0(v1)
f40025bc:	30420020 	andi	v0,v0,0x20
f40025c0:	1040fffb 	beqz	v0,f40025b0 <serial_putc+0x1c>
f40025c4:	320300ff 	andi	v1,s0,0xff
f40025c8:	34a22000 	ori	v0,a1,0x2000
f40025cc:	a0430000 	sb	v1,0(v0)
f40025d0:	8fbf0014 	lw	ra,20(sp)
f40025d4:	8fb00010 	lw	s0,16(sp)
f40025d8:	03e00008 	jr	ra
f40025dc:	27bd0018 	addiu	sp,sp,24
f40025e0:	0d000965 	jal	f4002594 <serial_putc>
f40025e4:	2404000d 	li	a0,13
f40025e8:	0900096d 	j	f40025b4 <serial_putc+0x20>
f40025ec:	3c05b003 	lui	a1,0xb003

f40025f0 <serial_puts>:
f40025f0:	27bdffe8 	addiu	sp,sp,-24
f40025f4:	afb00010 	sw	s0,16(sp)
f40025f8:	afbf0014 	sw	ra,20(sp)
f40025fc:	00808021 	move	s0,a0
f4002600:	80840000 	lb	a0,0(a0)
f4002604:	10800006 	beqz	a0,f4002620 <serial_puts+0x30>
f4002608:	8fbf0014 	lw	ra,20(sp)
f400260c:	0d000965 	jal	f4002594 <serial_putc>
f4002610:	26100001 	addiu	s0,s0,1
f4002614:	82040000 	lb	a0,0(s0)
f4002618:	1480fffc 	bnez	a0,f400260c <serial_puts+0x1c>
f400261c:	8fbf0014 	lw	ra,20(sp)
f4002620:	8fb00010 	lw	s0,16(sp)
f4002624:	03e00008 	jr	ra
f4002628:	27bd0018 	addiu	sp,sp,24

f400262c <serial_getc>:
f400262c:	03e00008 	jr	ra
f4002630:	00001021 	move	v0,zero

f4002634 <serial_put_hex>:
f4002634:	27bdffe0 	addiu	sp,sp,-32
f4002638:	afb20018 	sw	s2,24(sp)
f400263c:	afb10014 	sw	s1,20(sp)
f4002640:	afb00010 	sw	s0,16(sp)
f4002644:	afbf001c 	sw	ra,28(sp)
f4002648:	00808821 	move	s1,a0
f400264c:	2410001c 	li	s0,28
f4002650:	2412fffc 	li	s2,-4
f4002654:	02111006 	srlv	v0,s1,s0
f4002658:	3043000f 	andi	v1,v0,0xf
f400265c:	2c62000a 	sltiu	v0,v1,10
f4002660:	14400002 	bnez	v0,f400266c <serial_put_hex+0x38>
f4002664:	24640030 	addiu	a0,v1,48
f4002668:	24640037 	addiu	a0,v1,55
f400266c:	0d000965 	jal	f4002594 <serial_putc>
f4002670:	2610fffc 	addiu	s0,s0,-4
f4002674:	1612fff8 	bne	s0,s2,f4002658 <serial_put_hex+0x24>
f4002678:	02111006 	srlv	v0,s1,s0
f400267c:	8fbf001c 	lw	ra,28(sp)
f4002680:	8fb20018 	lw	s2,24(sp)
f4002684:	8fb10014 	lw	s1,20(sp)
f4002688:	8fb00010 	lw	s0,16(sp)
f400268c:	2404000a 	li	a0,10
f4002690:	09000965 	j	f4002594 <serial_putc>
f4002694:	27bd0020 	addiu	sp,sp,32
	...

f40026a0 <initdram>:
f40026a0:	3c02b34f 	lui	v0,0xb34f
f40026a4:	34420004 	ori	v0,v0,0x4
f40026a8:	8c440000 	lw	a0,0(v0)
f40026ac:	24070004 	li	a3,4
f40026b0:	00042982 	srl	a1,a0,0x6
f40026b4:	000419c2 	srl	v1,a0,0x7
f40026b8:	30820002 	andi	v0,a0,0x2
f40026bc:	30630001 	andi	v1,v1,0x1
f40026c0:	30a50001 	andi	a1,a1,0x1
f40026c4:	24060008 	li	a2,8
f40026c8:	00e2300a 	movz	a2,a3,v0
f40026cc:	00a32821 	addu	a1,a1,v1
f40026d0:	30820700 	andi	v0,a0,0x700
f40026d4:	30833800 	andi	v1,a0,0x3800
f40026d8:	70c53002 	mul	a2,a2,a1
f40026dc:	00021202 	srl	v0,v0,0x8
f40026e0:	00031ac2 	srl	v1,v1,0xb
f40026e4:	00621821 	addu	v1,v1,v0
f40026e8:	30840001 	andi	a0,a0,0x1
f40026ec:	24020002 	li	v0,2
f40026f0:	00e4100b 	movn	v0,a3,a0
f40026f4:	24630014 	addiu	v1,v1,20
f40026f8:	00621004 	sllv	v0,v0,v1
f40026fc:	03e00008 	jr	ra
f4002700:	70461002 	mul	v0,v0,a2

f4002704 <remap_swap>:
f4002704:	28830000 	slti	v1,a0,0
f4002708:	24820003 	addiu	v0,a0,3
f400270c:	0083100a 	movz	v0,a0,v1
f4002710:	00021083 	sra	v0,v0,0x2
f4002714:	3c03b34f 	lui	v1,0xb34f
f4002718:	3c068000 	lui	a2,0x8000
f400271c:	34c60003 	ori	a2,a2,0x3
f4002720:	3463009c 	ori	v1,v1,0x9c
f4002724:	00021080 	sll	v0,v0,0x2
f4002728:	00433821 	addu	a3,v0,v1
f400272c:	00862024 	and	a0,a0,a2
f4002730:	00a04021 	move	t0,a1
f4002734:	240c001f 	li	t4,31
f4002738:	00a62824 	and	a1,a1,a2
f400273c:	8ce60000 	lw	a2,0(a3)
f4002740:	04800022 	bltz	a0,f40027cc <remap_swap+0xc8>
f4002744:	000448c0 	sll	t1,a0,0x3
f4002748:	012c1004 	sllv	v0,t4,t1
f400274c:	00025027 	nor	t2,zero,v0
f4002750:	00c21024 	and	v0,a2,v0
f4002754:	01002021 	move	a0,t0
f4002758:	05000027 	bltz	t0,f40027f8 <remap_swap+0xf4>
f400275c:	01225806 	srlv	t3,v0,t1
f4002760:	00041083 	sra	v0,a0,0x2
f4002764:	00021080 	sll	v0,v0,0x2
f4002768:	00433021 	addu	a2,v0,v1
f400276c:	8cc80000 	lw	t0,0(a2)
f4002770:	04a00028 	bltz	a1,f4002814 <remap_swap+0x110>
f4002774:	00000000 	nop
f4002778:	8ce20000 	lw	v0,0(a3)
f400277c:	000528c0 	sll	a1,a1,0x3
f4002780:	004a1024 	and	v0,v0,t2
f4002784:	ace20000 	sw	v0,0(a3)
f4002788:	8cc30000 	lw	v1,0(a2)
f400278c:	00ac1004 	sllv	v0,t4,a1
f4002790:	00022027 	nor	a0,zero,v0
f4002794:	00641824 	and	v1,v1,a0
f4002798:	acc30000 	sw	v1,0(a2)
f400279c:	01021024 	and	v0,t0,v0
f40027a0:	8ce30000 	lw	v1,0(a3)
f40027a4:	00a21006 	srlv	v0,v0,a1
f40027a8:	01221004 	sllv	v0,v0,t1
f40027ac:	00621825 	or	v1,v1,v0
f40027b0:	ace30000 	sw	v1,0(a3)
f40027b4:	8cc20000 	lw	v0,0(a2)
f40027b8:	00ab2804 	sllv	a1,t3,a1
f40027bc:	00451025 	or	v0,v0,a1
f40027c0:	acc20000 	sw	v0,0(a2)
f40027c4:	03e00008 	jr	ra
f40027c8:	00000000 	nop
f40027cc:	2402fffc 	li	v0,-4
f40027d0:	2484ffff 	addiu	a0,a0,-1
f40027d4:	00822025 	or	a0,a0,v0
f40027d8:	24840001 	addiu	a0,a0,1
f40027dc:	000448c0 	sll	t1,a0,0x3
f40027e0:	012c1004 	sllv	v0,t4,t1
f40027e4:	00025027 	nor	t2,zero,v0
f40027e8:	00c21024 	and	v0,a2,v0
f40027ec:	01002021 	move	a0,t0
f40027f0:	0501ffdb 	bgez	t0,f4002760 <remap_swap+0x5c>
f40027f4:	01225806 	srlv	t3,v0,t1
f40027f8:	25040003 	addiu	a0,t0,3
f40027fc:	00041083 	sra	v0,a0,0x2
f4002800:	00021080 	sll	v0,v0,0x2
f4002804:	00433021 	addu	a2,v0,v1
f4002808:	8cc80000 	lw	t0,0(a2)
f400280c:	04a1ffda 	bgez	a1,f4002778 <remap_swap+0x74>
f4002810:	00000000 	nop
f4002814:	24a5ffff 	addiu	a1,a1,-1
f4002818:	2402fffc 	li	v0,-4
f400281c:	00a22825 	or	a1,a1,v0
f4002820:	090009de 	j	f4002778 <remap_swap+0x74>
f4002824:	24a50001 	addiu	a1,a1,1

f4002828 <sdram_init>:
f4002828:	27bdffd8 	addiu	sp,sp,-40
f400282c:	afb00010 	sw	s0,16(sp)
f4002830:	3c10b000 	lui	s0,0xb000
f4002834:	36050020 	ori	a1,s0,0x20
f4002838:	afbf0024 	sw	ra,36(sp)
f400283c:	afb40020 	sw	s4,32(sp)
f4002840:	afb3001c 	sw	s3,28(sp)
f4002844:	afb20018 	sw	s2,24(sp)
f4002848:	afb10014 	sw	s1,20(sp)
f400284c:	8ca30000 	lw	v1,0(a1)
f4002850:	3c027fff 	lui	v0,0x7fff
f4002854:	3442ffff 	ori	v0,v0,0xffff
f4002858:	00621824 	and	v1,v1,v0
f400285c:	361000d0 	ori	s0,s0,0xd0
f4002860:	24020073 	li	v0,115
f4002864:	aca30000 	sw	v1,0(a1)
f4002868:	24040005 	li	a0,5
f400286c:	ae020000 	sw	v0,0(s0)
f4002870:	0d000663 	jal	f400198c <mdelay>
f4002874:	3c11b34f 	lui	s1,0xb34f
f4002878:	24020071 	li	v0,113
f400287c:	ae020000 	sw	v0,0(s0)
f4002880:	0d000663 	jal	f400198c <mdelay>
f4002884:	24040005 	li	a0,5
f4002888:	36300008 	ori	s0,s1,0x8
f400288c:	3c0200f0 	lui	v0,0xf0
f4002890:	ae020000 	sw	v0,0(s0)
f4002894:	0d000663 	jal	f400198c <mdelay>
f4002898:	24040005 	li	a0,5
f400289c:	24040005 	li	a0,5
f40028a0:	ae000000 	sw	zero,0(s0)
f40028a4:	0d000663 	jal	f400198c <mdelay>
f40028a8:	3c120946 	lui	s2,0x946
f40028ac:	3c02b301 	lui	v0,0xb301
f40028b0:	36330004 	ori	s3,s1,0x4
f40028b4:	3c030015 	lui	v1,0x15
f40028b8:	34421054 	ori	v0,v0,0x1054
f40028bc:	3652896c 	ori	s2,s2,0x896c
f40028c0:	24140002 	li	s4,2
f40028c4:	ae720000 	sw	s2,0(s3)
f40028c8:	ae140000 	sw	s4,0(s0)
f40028cc:	ac430000 	sw	v1,0(v0)
f40028d0:	0d0008bb 	jal	f40022ec <ddr_phy_init>
f40028d4:	00000000 	nop
f40028d8:	3c020304 	lui	v0,0x304
f40028dc:	2409000a 	li	t1,10
f40028e0:	36240060 	ori	a0,s1,0x60
f40028e4:	34420501 	ori	v0,v0,0x501
f40028e8:	3c030209 	lui	v1,0x209
f40028ec:	ae000000 	sw	zero,0(s0)
f40028f0:	36250064 	ori	a1,s1,0x64
f40028f4:	ae090000 	sw	t1,0(s0)
f40028f8:	34630404 	ori	v1,v1,0x404
f40028fc:	ae000000 	sw	zero,0(s0)
f4002900:	ae720000 	sw	s2,0(s3)
f4002904:	ac820000 	sw	v0,0(a0)
f4002908:	3c022704 	lui	v0,0x2704
f400290c:	aca30000 	sw	v1,0(a1)
f4002910:	36260068 	ori	a2,s1,0x68
f4002914:	3442030c 	ori	v0,v0,0x30c
f4002918:	3c030778 	lui	v1,0x778
f400291c:	acc20000 	sw	v0,0(a2)
f4002920:	34630021 	ori	v1,v1,0x21
f4002924:	3627006c 	ori	a3,s1,0x6c
f4002928:	3c02ff07 	lui	v0,0xff07
f400292c:	ace30000 	sw	v1,0(a3)
f4002930:	34420200 	ori	v0,v0,0x200
f4002934:	36280070 	ori	t0,s1,0x70
f4002938:	3c030009 	lui	v1,0x9
f400293c:	ad020000 	sw	v0,0(t0)
f4002940:	34630202 	ori	v1,v1,0x202
f4002944:	240220fe 	li	v0,8446
f4002948:	362a0074 	ori	t2,s1,0x74
f400294c:	362b0024 	ori	t3,s1,0x24
f4002950:	ad430000 	sw	v1,0(t2)
f4002954:	362c0028 	ori	t4,s1,0x28
f4002958:	ad620000 	sw	v0,0(t3)
f400295c:	24032200 	li	v1,8704
f4002960:	3c02002f 	lui	v0,0x2f
f4002964:	ad830000 	sw	v1,0(t4)
f4002968:	34420003 	ori	v0,v0,0x3
f400296c:	3403c91e 	li	v1,0xc91e
f4002970:	362d0018 	ori	t5,s1,0x18
f4002974:	ae090000 	sw	t1,0(s0)
f4002978:	ada20000 	sw	v0,0(t5)
f400297c:	ae030000 	sw	v1,0(s0)
f4002980:	8e220000 	lw	v0,0(s1)
f4002984:	2403ffbf 	li	v1,-65
f4002988:	00431024 	and	v0,v0,v1
f400298c:	ae220000 	sw	v0,0(s1)
f4002990:	8e730000 	lw	s3,0(s3)
f4002994:	24020001 	li	v0,1
f4002998:	32633800 	andi	v1,s3,0x3800
f400299c:	32640700 	andi	a0,s3,0x700
f40029a0:	00031ac2 	srl	v1,v1,0xb
f40029a4:	00042202 	srl	a0,a0,0x8
f40029a8:	32650001 	andi	a1,s3,0x1
f40029ac:	32660002 	andi	a2,s3,0x2
f40029b0:	0045a00a 	movz	s4,v0,a1
f40029b4:	2463000c 	addiu	v1,v1,12
f40029b8:	10c00021 	beqz	a2,f4002a40 <sdram_init+0x218>
f40029bc:	24820008 	addiu	v0,a0,8
f40029c0:	00621021 	addu	v0,v1,v0
f40029c4:	00541021 	addu	v0,v0,s4
f40029c8:	32640080 	andi	a0,s3,0x80
f40029cc:	2452fff4 	addiu	s2,v0,-12
f40029d0:	32630040 	andi	v1,s3,0x40
f40029d4:	24100003 	li	s0,3
f40029d8:	10600002 	beqz	v1,f40029e4 <sdram_init+0x1bc>
f40029dc:	26020001 	addiu	v0,s0,1
f40029e0:	0044800b 	movn	s0,v0,a0
f40029e4:	1a000007 	blez	s0,f4002a04 <sdram_init+0x1dc>
f40029e8:	24110012 	li	s1,18
f40029ec:	02501021 	addu	v0,s2,s0
f40029f0:	1451000c 	bne	v0,s1,f4002a24 <sdram_init+0x1fc>
f40029f4:	2445ffff 	addiu	a1,v0,-1
f40029f8:	2610ffff 	addiu	s0,s0,-1
f40029fc:	1e00fffc 	bgtz	s0,f40029f0 <sdram_init+0x1c8>
f4002a00:	02501021 	addu	v0,s2,s0
f4002a04:	8fbf0024 	lw	ra,36(sp)
f4002a08:	8fb40020 	lw	s4,32(sp)
f4002a0c:	8fb3001c 	lw	s3,28(sp)
f4002a10:	8fb20018 	lw	s2,24(sp)
f4002a14:	8fb10014 	lw	s1,20(sp)
f4002a18:	8fb00010 	lw	s0,16(sp)
f4002a1c:	03e00008 	jr	ra
f4002a20:	27bd0028 	addiu	sp,sp,40
f4002a24:	2610ffff 	addiu	s0,s0,-1
f4002a28:	0d0009c1 	jal	f4002704 <remap_swap>
f4002a2c:	02002021 	move	a0,s0
f4002a30:	1e00ffef 	bgtz	s0,f40029f0 <sdram_init+0x1c8>
f4002a34:	02501021 	addu	v0,s2,s0
f4002a38:	09000a82 	j	f4002a08 <sdram_init+0x1e0>
f4002a3c:	8fbf0024 	lw	ra,36(sp)
f4002a40:	00621021 	addu	v0,v1,v0
f4002a44:	00541021 	addu	v0,v0,s4
f4002a48:	32640080 	andi	a0,s3,0x80
f4002a4c:	2452fff4 	addiu	s2,v0,-12
f4002a50:	32630040 	andi	v1,s3,0x40
f4002a54:	09000a76 	j	f40029d8 <sdram_init+0x1b0>
f4002a58:	24100002 	li	s0,2
